	.file	"Lab#04_Mendoza_Lopez_code.cpp"
	.section .rdata,"dr"
_ZStL19piecewise_construct:
	.space 1
.lcomm _ZStL8__ioinit,1,1
	.text
	.globl	_Z6dummy2i
	.def	_Z6dummy2i;	.scl	2;	.type	32;	.endef
	.seh_proc	_Z6dummy2i
_Z6dummy2i:
.LFB1546:
	pushq	%rbp
	.seh_pushreg	%rbp
	movq	%rsp, %rbp
	.seh_setframe	%rbp, 0
	subq	$16, %rsp
	.seh_stackalloc	16
	.seh_endprologue
	movl	%ecx, 16(%rbp)
	movl	16(%rbp), %eax
	imull	$45, %eax, %eax
	movl	%eax, -4(%rbp)
	movl	-4(%rbp), %eax
	addq	$16, %rsp
	popq	%rbp
	ret
	.seh_endproc
	.globl	_Z6dummy3i
	.def	_Z6dummy3i;	.scl	2;	.type	32;	.endef
	.seh_proc	_Z6dummy3i
_Z6dummy3i:
.LFB1547:
	pushq	%rbp
	.seh_pushreg	%rbp
	movq	%rsp, %rbp
	.seh_setframe	%rbp, 0
	subq	$16, %rsp
	.seh_stackalloc	16
	.seh_endprologue
	movl	%ecx, 16(%rbp)
	movl	16(%rbp), %edx
	movl	$0, %eax
	subl	%edx, %eax
	addl	%eax, %eax
	movl	%eax, -4(%rbp)
	movl	-4(%rbp), %eax
	addq	$16, %rsp
	popq	%rbp
	ret
	.seh_endproc
	.globl	_Z6dummy4i
	.def	_Z6dummy4i;	.scl	2;	.type	32;	.endef
	.seh_proc	_Z6dummy4i
_Z6dummy4i:
.LFB1548:
	pushq	%rbp
	.seh_pushreg	%rbp
	movq	%rsp, %rbp
	.seh_setframe	%rbp, 0
	subq	$16, %rsp
	.seh_stackalloc	16
	.seh_endprologue
	movl	%ecx, 16(%rbp)
	movl	$0, -4(%rbp)
	movl	-4(%rbp), %eax
	addq	$16, %rsp
	popq	%rbp
	ret
	.seh_endproc
	.def	__main;	.scl	2;	.type	32;	.endef
	.globl	main
	.def	main;	.scl	2;	.type	32;	.endef
	.seh_proc	main
main:
.LFB1549:
	pushq	%rbp
	.seh_pushreg	%rbp
	movq	%rsp, %rbp
	.seh_setframe	%rbp, 0
	subq	$32, %rsp
	.seh_stackalloc	32
	.seh_endprologue
	call	__main
	movl	$5, %ecx
	call	_Z6dummy2i
	movl	%eax, %edx
	movq	.refptr._ZSt4cout(%rip), %rcx
	call	_ZNSolsEi
	movl	$5, %ecx
	call	_Z6dummy3i
	movl	%eax, %edx
	movq	.refptr._ZSt4cout(%rip), %rcx
	call	_ZNSolsEi
	movl	$5, %ecx
	call	_Z6dummy4i
	movl	%eax, %edx
	movq	.refptr._ZSt4cout(%rip), %rcx
	call	_ZNSolsEi
	movl	$0, %eax
	addq	$32, %rsp
	popq	%rbp
	ret
	.seh_endproc
	.def	__tcf_0;	.scl	3;	.type	32;	.endef
	.seh_proc	__tcf_0
__tcf_0:
.LFB2031:
	pushq	%rbp
	.seh_pushreg	%rbp
	movq	%rsp, %rbp
	.seh_setframe	%rbp, 0
	subq	$32, %rsp
	.seh_stackalloc	32
	.seh_endprologue
	leaq	_ZStL8__ioinit(%rip), %rcx
	call	_ZNSt8ios_base4InitD1Ev
	nop
	addq	$32, %rsp
	popq	%rbp
	ret
	.seh_endproc
	.def	_Z41__static_initialization_and_destruction_0ii;	.scl	3;	.type	32;	.endef
	.seh_proc	_Z41__static_initialization_and_destruction_0ii
_Z41__static_initialization_and_destruction_0ii:
.LFB2030:
	pushq	%rbp
	.seh_pushreg	%rbp
	movq	%rsp, %rbp
	.seh_setframe	%rbp, 0
	subq	$32, %rsp
	.seh_stackalloc	32
	.seh_endprologue
	movl	%ecx, 16(%rbp)
	movl	%edx, 24(%rbp)
	cmpl	$1, 16(%rbp)
	jne	.L12
	cmpl	$65535, 24(%rbp)
	jne	.L12
	leaq	_ZStL8__ioinit(%rip), %rcx
	call	_ZNSt8ios_base4InitC1Ev
	leaq	__tcf_0(%rip), %rcx
	call	atexit
.L12:
	nop
	addq	$32, %rsp
	popq	%rbp
	ret
	.seh_endproc
	.def	_GLOBAL__sub_I__Z6dummy2i;	.scl	3;	.type	32;	.endef
	.seh_proc	_GLOBAL__sub_I__Z6dummy2i
_GLOBAL__sub_I__Z6dummy2i:
.LFB2032:
	pushq	%rbp
	.seh_pushreg	%rbp
	movq	%rsp, %rbp
	.seh_setframe	%rbp, 0
	subq	$32, %rsp
	.seh_stackalloc	32
	.seh_endprologue
	movl	$65535, %edx
	movl	$1, %ecx
	call	_Z41__static_initialization_and_destruction_0ii
	nop
	addq	$32, %rsp
	popq	%rbp
	ret
	.seh_endproc
	.section	.ctors,"w"
	.align 8
	.quad	_GLOBAL__sub_I__Z6dummy2i
	.ident	"GCC: (x86_64-posix-seh-rev1, Built by MinGW-W64 project) 7.2.0"
	.def	_ZNSolsEi;	.scl	2;	.type	32;	.endef
	.def	_ZNSt8ios_base4InitD1Ev;	.scl	2;	.type	32;	.endef
	.def	_ZNSt8ios_base4InitC1Ev;	.scl	2;	.type	32;	.endef
	.def	atexit;	.scl	2;	.type	32;	.endef
	.section	.rdata$.refptr._ZSt4cout, "dr"
	.globl	.refptr._ZSt4cout
	.linkonce	discard
.refptr._ZSt4cout:
	.quad	_ZSt4cout
